target datalayout = "e-m:e-p270:32:32-p271:32:32-p272:64:64-i64:64-i128:128-f80:128-n8:16:32:64-S128"
target triple = "x86_64-pc-linux-gnu"

@.str = private unnamed_addr constant [36 x i8] c"FATAL ERROR %s -> in %s @ in %s:%d \00", align 1
@.str.1 = private unnamed_addr constant [22 x i8] c"Should be unreachable\00", align 1
@.str.2 = private unnamed_addr constant [107 x i8] c"generated/home/dtcxzyw/WorkSpace/Projects/compilers/llvm-opt-benchmark/bench/c3c/c3c/src/compiler/linker.c\00", align 1
@__func__.obj_format_linking_supported = private unnamed_addr constant [29 x i8] c"obj_format_linking_supported\00", align 1

; Function Attrs: nounwind uwtable
define dso_local zeroext i1 @obj_format_linking_supported(i32 noundef %0) #0 {
  %2 = alloca i1, align 1
  %3 = alloca i32, align 4
  store i32 %0, ptr %3, align 4
  %4 = load i32, ptr %3, align 4
  switch i32 %4, label %7 [
    i32 6, label %5
    i32 7, label %5
    i32 2, label %5
    i32 0, label %5
    i32 1, label %6
    i32 3, label %6
    i32 4, label %6
    i32 5, label %6
  ]

5:                                                ; preds = %1, %1, %1, %1
  store i1 false, ptr %2, align 1
  br label %9

6:                                                ; preds = %1, %1, %1, %1
  store i1 true, ptr %2, align 1
  br label %9

7:                                                ; preds = %1
  br label %8

8:                                                ; preds = %7
  call void (ptr, ...) @error_exit(ptr noundef @.str, ptr noundef @.str.1, ptr noundef @__func__.obj_format_linking_supported, ptr noundef @.str.2, i32 noundef 676) #6
  unreachable

9:                                                ; preds = %6, %5
  %10 = load i1, ptr %2, align 1
  ret i1 %10
}