; Function Attrs: nounwind uwtable
define dso_local noundef zeroext i1 @obj_format_linking_supported(i32 noundef %0) local_unnamed_addr #0 {
  %2 = icmp ult i32 %0, 8
  br i1 %2, label %switch.lookup, label %3

3:                                                ; preds = %1
  tail call void (ptr, ...) @error_exit(ptr noundef nonnull @.str, ptr noundef nonnull @.str.1, ptr noundef nonnull @__func__.obj_format_linking_supported, ptr noundef nonnull @.str.2, i32 noundef 676) #12
  unreachable

switch.lookup:                                    ; preds = %1
  %switch.cast = trunc nuw i32 %0 to i8
  %switch.downshift = lshr i8 58, %switch.cast
  %switch.masked = trunc i8 %switch.downshift to i1
  ret i1 %switch.masked
}